; Function Attrs: mustprogress nofree norecurse nosync nounwind willreturn memory(readwrite, inaccessiblemem: none) uwtable
define dso_local noundef zeroext i1 @_ZN5clang6interp7InitMap17initializeElementEj(ptr nocapture noundef nonnull align 8 dereferenceable(16) %0, i32 noundef %1) local_unnamed_addr #8 align 2 {
  %3 = lshr i32 %1, 6
  %4 = and i32 %1, 63
  %5 = zext nneg i32 %4 to i64
  %6 = shl nuw i64 1, %5
  %7 = getelementptr inbounds nuw i8, ptr %0, i64 8
  %8 = load ptr, ptr %7, align 8
  %9 = zext nneg i32 %3 to i64
  %10 = getelementptr inbounds i64, ptr %8, i64 %9
  %11 = load i64, ptr %10, align 8
  %12 = and i64 %11, %6
  %.not = icmp eq i64 %12, 0
  br i1 %.not, label %13, label %._crit_edge

._crit_edge:                                      ; preds = %2
  %.pre = load i32, ptr %0, align 8
  br label %17

13:                                               ; preds = %2
  %14 = or i64 %11, %6
  store i64 %14, ptr %10, align 8
  %15 = load i32, ptr %0, align 8
  %16 = add i32 %15, -1
  store i32 %16, ptr %0, align 8
  br label %17

17:                                               ; preds = %._crit_edge, %13
  %18 = phi i32 [ %.pre, %._crit_edge ], [ %16, %13 ]
  %19 = icmp eq i32 %18, 0
  ret i1 %19
}